target datalayout = "e-m:e-p270:32:32-p271:32:32-p272:64:64-i64:64-i128:128-f80:128-n8:16:32:64-S128"
target triple = "x86_64-pc-linux-gnu"

%"struct.(anonymous namespace)::hex" = type { i32, i64, i64, i64 }

@_ZTIPKc = external constant ptr
@.str.22 = private unnamed_addr constant [17 x i8] c"Integer overflow\00", align 1
@.str.23 = private unnamed_addr constant [17 x i8] c"Division by zero\00", align 1

; Function Attrs: mustprogress nounwind uwtable
define internal void @_ZL6hex_xyPN12_GLOBAL__N_13hexE(ptr noundef %0) #3 {
  %2 = alloca ptr, align 8
  store ptr %0, ptr %2, align 8
  %3 = load ptr, ptr %2, align 8
  %4 = getelementptr inbounds %"struct.(anonymous namespace)::hex", ptr %3, i32 0, i32 0
  %5 = load i32, ptr %4, align 8
  %6 = icmp ne i32 %5, 0
  br i1 %6, label %8, label %7

7:                                                ; preds = %1
  br label %41

8:                                                ; preds = %1
  %9 = load ptr, ptr %2, align 8
  %10 = getelementptr inbounds %"struct.(anonymous namespace)::hex", ptr %9, i32 0, i32 1
  %11 = load i64, ptr %10, align 8
  %12 = icmp sge i64 %11, 0
  br i1 %12, label %13, label %26

13:                                               ; preds = %8
  %14 = load ptr, ptr %2, align 8
  %15 = getelementptr inbounds %"struct.(anonymous namespace)::hex", ptr %14, i32 0, i32 2
  %16 = load i64, ptr %15, align 8
  %17 = sub nsw i64 0, %16
  %18 = load ptr, ptr %2, align 8
  %19 = getelementptr inbounds %"struct.(anonymous namespace)::hex", ptr %18, i32 0, i32 1
  %20 = load i64, ptr %19, align 8
  %21 = add nsw i64 %20, 1
  %22 = sdiv i64 %21, 2
  %23 = sub nsw i64 %17, %22
  %24 = load ptr, ptr %2, align 8
  %25 = getelementptr inbounds %"struct.(anonymous namespace)::hex", ptr %24, i32 0, i32 2
  store i64 %23, ptr %25, align 8
  br label %38

26:                                               ; preds = %8
  %27 = load ptr, ptr %2, align 8
  %28 = getelementptr inbounds %"struct.(anonymous namespace)::hex", ptr %27, i32 0, i32 2
  %29 = load i64, ptr %28, align 8
  %30 = sub nsw i64 0, %29
  %31 = load ptr, ptr %2, align 8
  %32 = getelementptr inbounds %"struct.(anonymous namespace)::hex", ptr %31, i32 0, i32 1
  %33 = load i64, ptr %32, align 8
  %34 = sdiv i64 %33, 2
  %35 = sub nsw i64 %30, %34
  %36 = load ptr, ptr %2, align 8
  %37 = getelementptr inbounds %"struct.(anonymous namespace)::hex", ptr %36, i32 0, i32 2
  store i64 %35, ptr %37, align 8
  br label %38

38:                                               ; preds = %26, %13
  %39 = load ptr, ptr %2, align 8
  %40 = getelementptr inbounds %"struct.(anonymous namespace)::hex", ptr %39, i32 0, i32 0
  store i32 0, ptr %40, align 8
  br label %41

41:                                               ; preds = %38, %7
  ret void
}

; Function Attrs: mustprogress nounwind uwtable
define linkonce_odr noundef i32 @_ZNSt14numeric_limitsIiE3maxEv() #3 comdat align 2 {
  ret i32 2147483647
}

; Function Attrs: mustprogress uwtable
define internal void @_ZL7hexbin2dddPlS_(double noundef %0, double noundef %1, double noundef %2, ptr noundef %3, ptr noundef %4) #0 {
  %6 = alloca double, align 8
  %7 = alloca double, align 8
  %8 = alloca double, align 8
  %9 = alloca ptr, align 8
  %10 = alloca ptr, align 8
  %11 = alloca double, align 8
  %12 = alloca double, align 8
  %13 = alloca double, align 8
  %14 = alloca double, align 8
  %15 = alloca double, align 8
  %16 = alloca double, align 8
  %17 = alloca double, align 8
  %18 = alloca i64, align 8
  %19 = alloca i64, align 8
  %20 = alloca i64, align 8
  %21 = alloca i64, align 8
  %22 = alloca %"struct.(anonymous namespace)::hex", align 8
  store double %0, ptr %6, align 8
  store double %1, ptr %7, align 8
  store double %2, ptr %8, align 8
  store ptr %3, ptr %9, align 8
  store ptr %4, ptr %10, align 8
  %23 = load double, ptr %7, align 8
  %24 = call double @cos(double noundef 0x3FE0C152382D7365) #13
  %25 = fdiv double %23, %24
  store double %25, ptr %7, align 8
  %26 = load double, ptr %8, align 8
  %27 = load double, ptr %7, align 8
  %28 = fdiv double %27, 2.000000e+00
  %29 = fsub double %26, %28
  store double %29, ptr %8, align 8
  %30 = load double, ptr %6, align 8
  %31 = fcmp oeq double %30, 0.000000e+00
  br i1 %31, label %32, label %34

32:                                               ; preds = %5
  %33 = call ptr @__cxa_allocate_exception(i64 8) #13
  store ptr @.str.23, ptr %33, align 16
  call void @__cxa_throw(ptr %33, ptr @_ZTIPKc, ptr null) #14
  unreachable

34:                                               ; preds = %5
  %35 = load double, ptr %6, align 8
  %36 = load double, ptr %7, align 8
  %37 = fdiv double %36, %35
  store double %37, ptr %7, align 8
  %38 = load double, ptr %6, align 8
  %39 = load double, ptr %8, align 8
  %40 = fdiv double %39, %38
  store double %40, ptr %8, align 8
  %41 = load double, ptr %7, align 8
  %42 = fneg double %41
  %43 = load double, ptr %8, align 8
  %44 = fsub double %42, %43
  store double %44, ptr %11, align 8
  %45 = load double, ptr %7, align 8
  %46 = fadd double %45, 5.000000e-01
  %47 = call double @llvm.floor.f64(double %46)
  store double %47, ptr %12, align 8
  %48 = load double, ptr %12, align 8
  %49 = call i64 @lround(double noundef %48) #13
  store i64 %49, ptr %18, align 8
  %50 = load double, ptr %8, align 8
  %51 = fadd double %50, 5.000000e-01
  %52 = call double @llvm.floor.f64(double %51)
  store double %52, ptr %13, align 8
  %53 = load double, ptr %13, align 8
  %54 = call i64 @lround(double noundef %53) #13
  store i64 %54, ptr %19, align 8
  %55 = load double, ptr %11, align 8
  %56 = fadd double %55, 5.000000e-01
  %57 = call double @llvm.floor.f64(double %56)
  store double %57, ptr %14, align 8
  %58 = load double, ptr %14, align 8
  %59 = call i64 @lround(double noundef %58) #13
  store i64 %59, ptr %20, align 8
  %60 = load i64, ptr %18, align 8
  %61 = sitofp i64 %60 to double
  %62 = load i64, ptr %19, align 8
  %63 = sitofp i64 %62 to double
  %64 = fadd double %61, %63
  %65 = call double @llvm.fabs.f64(double %64)
  %66 = call noundef i32 @_ZNSt14numeric_limitsIiE3maxEv() #13
  %67 = sitofp i32 %66 to double
  %68 = fcmp ogt double %65, %67
  br i1 %68, label %82, label %69

69:                                               ; preds = %34
  %70 = load i64, ptr %18, align 8
  %71 = sitofp i64 %70 to double
  %72 = load i64, ptr %19, align 8
  %73 = sitofp i64 %72 to double
  %74 = fadd double %71, %73
  %75 = load i64, ptr %20, align 8
  %76 = sitofp i64 %75 to double
  %77 = fadd double %74, %76
  %78 = call double @llvm.fabs.f64(double %77)
  %79 = call noundef i32 @_ZNSt14numeric_limitsIiE3maxEv() #13
  %80 = sitofp i32 %79 to double
  %81 = fcmp ogt double %78, %80
  br i1 %81, label %82, label %84

82:                                               ; preds = %69, %34
  %83 = call ptr @__cxa_allocate_exception(i64 8) #13
  store ptr @.str.22, ptr %83, align 16
  call void @__cxa_throw(ptr %83, ptr @_ZTIPKc, ptr null) #14
  unreachable

84:                                               ; preds = %69
  %85 = load i64, ptr %18, align 8
  %86 = load i64, ptr %19, align 8
  %87 = add nsw i64 %85, %86
  %88 = load i64, ptr %20, align 8
  %89 = add nsw i64 %87, %88
  store i64 %89, ptr %21, align 8
  %90 = load i64, ptr %21, align 8
  %91 = icmp ne i64 %90, 0
  br i1 %91, label %92, label %134

92:                                               ; preds = %84
  %93 = load double, ptr %12, align 8
  %94 = load double, ptr %7, align 8
  %95 = fsub double %93, %94
  %96 = call double @llvm.fabs.f64(double %95)
  store double %96, ptr %15, align 8
  %97 = load double, ptr %13, align 8
  %98 = load double, ptr %8, align 8
  %99 = fsub double %97, %98
  %100 = call double @llvm.fabs.f64(double %99)
  store double %100, ptr %16, align 8
  %101 = load double, ptr %14, align 8
  %102 = load double, ptr %11, align 8
  %103 = fsub double %101, %102
  %104 = call double @llvm.fabs.f64(double %103)
  store double %104, ptr %17, align 8
  %105 = load double, ptr %15, align 8
  %106 = load double, ptr %16, align 8
  %107 = fcmp oge double %105, %106
  br i1 %107, label %108, label %116

108:                                              ; preds = %92
  %109 = load double, ptr %15, align 8
  %110 = load double, ptr %17, align 8
  %111 = fcmp oge double %109, %110
  br i1 %111, label %112, label %116

112:                                              ; preds = %108
  %113 = load i64, ptr %21, align 8
  %114 = load i64, ptr %18, align 8
  %115 = sub nsw i64 %114, %113
  store i64 %115, ptr %18, align 8
  br label %133

116:                                              ; preds = %108, %92
  %117 = load double, ptr %16, align 8
  %118 = load double, ptr %15, align 8
  %119 = fcmp oge double %117, %118
  br i1 %119, label %120, label %128

120:                                              ; preds = %116
  %121 = load double, ptr %16, align 8
  %122 = load double, ptr %17, align 8
  %123 = fcmp oge double %121, %122
  br i1 %123, label %124, label %128

124:                                              ; preds = %120
  %125 = load i64, ptr %21, align 8
  %126 = load i64, ptr %19, align 8
  %127 = sub nsw i64 %126, %125
  store i64 %127, ptr %19, align 8
  br label %132

128:                                              ; preds = %120, %116
  %129 = load i64, ptr %21, align 8
  %130 = load i64, ptr %20, align 8
  %131 = sub nsw i64 %130, %129
  store i64 %131, ptr %20, align 8
  br label %132

132:                                              ; preds = %128, %124
  br label %133

133:                                              ; preds = %132, %112
  br label %134

134:                                              ; preds = %133, %84
  %135 = load i64, ptr %18, align 8
  %136 = getelementptr inbounds %"struct.(anonymous namespace)::hex", ptr %22, i32 0, i32 1
  store i64 %135, ptr %136, align 8
  %137 = load i64, ptr %19, align 8
  %138 = getelementptr inbounds %"struct.(anonymous namespace)::hex", ptr %22, i32 0, i32 2
  store i64 %137, ptr %138, align 8
  %139 = load i64, ptr %20, align 8
  %140 = getelementptr inbounds %"struct.(anonymous namespace)::hex", ptr %22, i32 0, i32 3
  store i64 %139, ptr %140, align 8
  %141 = getelementptr inbounds %"struct.(anonymous namespace)::hex", ptr %22, i32 0, i32 0
  store i32 1, ptr %141, align 8
  call void @_ZL6hex_xyPN12_GLOBAL__N_13hexE(ptr noundef %22)
  %142 = getelementptr inbounds %"struct.(anonymous namespace)::hex", ptr %22, i32 0, i32 1
  %143 = load i64, ptr %142, align 8
  %144 = load ptr, ptr %9, align 8
  store i64 %143, ptr %144, align 8
  %145 = getelementptr inbounds %"struct.(anonymous namespace)::hex", ptr %22, i32 0, i32 2
  %146 = load i64, ptr %145, align 8
  %147 = load ptr, ptr %10, align 8
  store i64 %146, ptr %147, align 8
  ret void
}