; Function Attrs: mustprogress uwtable
define internal fastcc void @_ZL7hexbin2dddPlS_(double noundef %0, double noundef %1, double noundef %2, ptr nocapture noundef writeonly %3, ptr nocapture noundef writeonly %4) unnamed_addr #0 {
  %6 = fcmp oeq double %0, 0.000000e+00
  br i1 %6, label %7, label %9

7:                                                ; preds = %5
  %8 = tail call ptr @__cxa_allocate_exception(i64 8) #16
  store ptr @.str.23, ptr %8, align 16
  tail call void @__cxa_throw(ptr nonnull %8, ptr nonnull @_ZTIPKc, ptr null) #19
  unreachable

9:                                                ; preds = %5
  %10 = fdiv double %1, 0x3FEBB67AE8584CAB
  %11 = fmul double %10, 5.000000e-01
  %12 = fsub double %2, %11
  %13 = fdiv double %10, %0
  %14 = fdiv double %12, %0
  %15 = fneg double %13
  %16 = fsub double %15, %14
  %17 = fadd double %14, 5.000000e-01
  %18 = tail call double @llvm.floor.f64(double %17)
  %19 = insertelement <2 x double> poison, double %13, i64 0
  %20 = insertelement <2 x double> %19, double %16, i64 1
  %21 = fadd <2 x double> %20, <double 5.000000e-01, double 5.000000e-01>
  %22 = tail call <2 x double> @llvm.floor.v2f64(<2 x double> %21)
  %23 = extractelement <2 x double> %22, i64 0
  %24 = tail call i64 @lround(double noundef %23) #16
  %25 = tail call i64 @lround(double noundef %18) #16
  %26 = extractelement <2 x double> %22, i64 1
  %27 = tail call i64 @lround(double noundef %26) #16
  %28 = sitofp i64 %24 to double
  %29 = sitofp i64 %25 to double
  %30 = fadd double %28, %29
  %31 = tail call double @llvm.fabs.f64(double %30)
  %32 = fcmp ogt double %31, 0x41DFFFFFFFC00000
  br i1 %32, label %38, label %33

33:                                               ; preds = %9
  %34 = sitofp i64 %27 to double
  %35 = fadd double %30, %34
  %36 = tail call double @llvm.fabs.f64(double %35)
  %37 = fcmp ogt double %36, 0x41DFFFFFFFC00000
  br i1 %37, label %38, label %40

38:                                               ; preds = %33, %9
  %39 = tail call ptr @__cxa_allocate_exception(i64 8) #16
  store ptr @.str.22, ptr %39, align 16
  tail call void @__cxa_throw(ptr nonnull %39, ptr nonnull @_ZTIPKc, ptr null) #19
  unreachable

40:                                               ; preds = %33
  %41 = add nsw i64 %25, %24
  %42 = add nsw i64 %41, %27
  %.not = icmp eq i64 %42, 0
  br i1 %.not, label %58, label %43

43:                                               ; preds = %40
  %44 = fsub <2 x double> %22, %20
  %45 = fsub double %18, %14
  %46 = tail call double @llvm.fabs.f64(double %45)
  %47 = tail call <2 x double> @llvm.fabs.v2f64(<2 x double> %44)
  %48 = extractelement <2 x double> %47, i64 0
  %49 = fcmp ult double %48, %46
  %50 = extractelement <2 x double> %47, i64 1
  %51 = fcmp ult double %48, %50
  %or.cond = select i1 %49, i1 true, i1 %51
  br i1 %or.cond, label %54, label %52

52:                                               ; preds = %43
  %53 = sub nsw i64 %24, %42
  br label %58

54:                                               ; preds = %43
  %55 = fcmp ult double %46, %48
  %56 = fcmp ult double %46, %50
  %or.cond55 = select i1 %55, i1 true, i1 %56
  %57 = select i1 %or.cond55, i64 0, i64 %42
  %spec.select = sub nsw i64 %25, %57
  br label %58

58:                                               ; preds = %54, %40, %52
  %.050 = phi i64 [ %53, %52 ], [ %24, %40 ], [ %24, %54 ]
  %.049 = phi i64 [ %25, %52 ], [ %25, %40 ], [ %spec.select, %54 ]
  %59 = icmp sgt i64 %.050, -1
  br i1 %59, label %60, label %65

60:                                               ; preds = %58
  %61 = add nuw nsw i64 %.050, 1
  %62 = lshr i64 %61, 1
  %63 = add i64 %.049, %62
  %64 = sub i64 0, %63
  br label %_ZL6hex_xyPN12_GLOBAL__N_13hexE.exit

65:                                               ; preds = %58
  %.nonneg.i = sub i64 0, %.050
  %.neg1011.i = lshr i64 %.nonneg.i, 1
  %66 = sub i64 %.neg1011.i, %.049
  br label %_ZL6hex_xyPN12_GLOBAL__N_13hexE.exit

_ZL6hex_xyPN12_GLOBAL__N_13hexE.exit:             ; preds = %60, %65
  %.sink.i = phi i64 [ %66, %65 ], [ %64, %60 ]
  store i64 %.050, ptr %3, align 8
  store i64 %.sink.i, ptr %4, align 8
  ret void
}